; Function Attrs: mustprogress uwtable
define internal noundef i64 @_ZL2c1P11processor_t6insn_tm(ptr noundef nonnull %0, i64 %1, i64 noundef %2) #3 {
  %4 = alloca i64, align 8
  %.sroa.0.0.extract.trunc = trunc i64 %1 to i32
  %5 = tail call noundef ptr @_ZN11processor_t13get_extensionEv(ptr noundef nonnull align 8 dereferenceable(266872) %0)
  %6 = and i32 %.sroa.0.0.extract.trunc, 8192
  %.not = icmp eq i32 %6, 0
  br i1 %.not, label %13, label %7

7:                                                ; preds = %3
  %8 = getelementptr inbounds nuw i8, ptr %0, i64 256
  %9 = lshr i64 %1, 15
  %10 = and i64 %9, 31
  %11 = getelementptr inbounds nuw [32 x i64], ptr %8, i64 0, i64 %10
  %12 = load i64, ptr %11, align 8, !tbaa !3
  br label %13

13:                                               ; preds = %3, %7
  %14 = phi i64 [ %12, %7 ], [ -1, %3 ]
  %15 = and i32 %.sroa.0.0.extract.trunc, 4096
  %.not15 = icmp eq i32 %15, 0
  br i1 %.not15, label %22, label %16

16:                                               ; preds = %13
  %17 = getelementptr inbounds nuw i8, ptr %0, i64 256
  %18 = lshr i64 %1, 20
  %19 = and i64 %18, 31
  %20 = getelementptr inbounds nuw [32 x i64], ptr %17, i64 0, i64 %19
  %21 = load i64, ptr %20, align 8, !tbaa !3
  br label %22

22:                                               ; preds = %13, %16
  %23 = phi i64 [ %21, %16 ], [ -1, %13 ]
  %24 = load ptr, ptr %5, align 8, !tbaa !14
  %25 = getelementptr inbounds nuw i8, ptr %24, i64 72
  %26 = load ptr, ptr %25, align 8
  %27 = tail call noundef i64 %26(ptr noundef nonnull align 8 dereferenceable(16) %5, i32 %.sroa.0.0.extract.trunc, i64 noundef %14, i64 noundef %23)
  %28 = and i32 %.sroa.0.0.extract.trunc, 16384
  %.not16 = icmp eq i32 %28, 0
  br i1 %.not16, label %_ZN9regfile_tImLm32ELb1EE5writeEmm.exit, label %29

29:                                               ; preds = %22
  %30 = getelementptr inbounds nuw i8, ptr %0, i64 3840
  call void @llvm.lifetime.start.p0(i64 8, ptr nonnull %4) #17
  %31 = lshr i64 %1, 7
  %32 = and i64 %31, 31
  %33 = shl nuw nsw i64 %32, 4
  store i64 %33, ptr %4, align 8, !tbaa !3
  %34 = call noundef nonnull align 8 dereferenceable(16) ptr @_ZNSt3mapIm10float128_tSt4lessImESaISt4pairIKmS0_EEEixEOm(ptr noundef nonnull align 8 dereferenceable(48) %30, ptr noundef nonnull align 8 dereferenceable(8) %4)
  store i64 %27, ptr %34, align 8
  %.sroa.4.0..sroa_idx = getelementptr inbounds nuw i8, ptr %34, i64 8
  store i64 0, ptr %.sroa.4.0..sroa_idx, align 8, !tbaa !16
  call void @llvm.lifetime.end.p0(i64 8, ptr nonnull %4) #17
  %.not.i = icmp eq i64 %32, 0
  br i1 %.not.i, label %_ZN9regfile_tImLm32ELb1EE5writeEmm.exit, label %35

35:                                               ; preds = %29
  %36 = getelementptr inbounds nuw i8, ptr %0, i64 256
  %37 = getelementptr inbounds nuw [32 x i64], ptr %36, i64 0, i64 %32
  store i64 %27, ptr %37, align 8, !tbaa !3
  br label %_ZN9regfile_tImLm32ELb1EE5writeEmm.exit

_ZN9regfile_tImLm32ELb1EE5writeEmm.exit:          ; preds = %35, %29, %22
  %38 = add i64 %2, 4
  ret i64 %38
}